(dp1
I1
S'1DXZ:sp|P02710.1|ACHA_TETCF'
p2
sI2
S'3MRA:pdb|3MRA|'
p3
sI3
S'4TNV:sp|G5EBR3.1|GLUCL_CAEEL'
p4
sI4
S'4TNW:sp|G5EBR3.1|GLUCL_CAEEL'
p5
sI5
S'2M6B:sp|P23415.2|GLRA1_HUMAN'
p6
sI6
S'2K58:sp|P17787.1|ACHB2_HUMAN'
p7
sI7
S'2K59:sp|P17787.1|ACHB2_HUMAN'
p8
sI8
S'4AQ5:sp|P02711.1|ACHA_TORMA'
p9
sI9
S'4AQ9:sp|P02711.1|ACHA_TORMA'
p10
sI10
S'1OED:sp|P02714.1|ACHG_TETCF'
p11
sI11
S'3RI5:sp|G5EBR3.1|GLUCL_CAEEL'
p12
sI12
S'2M6I:sp|P23415.2|GLRA1_HUMAN'
p13
sI13
S'4BOO:sp|P02711.1|ACHA_TORMA'
p14
sI14
S'3RIF:sp|G5EBR3.1|GLUCL_CAEEL'
p15
sI15
S'3RIA:sp|G5EBR3.1|GLUCL_CAEEL'
p16
sI16
S'2LM2:sp|P17787.1|ACHB2_HUMAN'
p17
sI17
S'2LKH:pdb|2LKH|A'
p18
sI18
S'2LKG:pdb|2LKG|A'
p19
sI19
S'1VRY:sp|P23415.2|GLRA1_HUMAN'
p20
sI20
S'2BG9:sp|P02711.1|ACHA_TORMA'
p21
sI21
S'4BOG:sp|P02711.1|ACHA_TORMA'
p22
sI22
S'2KSR:sp|P17787.1|ACHB2_HUMAN'
p23
sI23
S'2MAW:sp|P36544.5|ACHA7_HUMAN'
p24
sI24
S'4PIR:sp|P23979.1|5HT3A_MOUSE'
p25
sI25
S'3RHW:sp|G5EBR3.1|GLUCL_CAEEL'
p26
sI26
S'4BOR:sp|P02711.1|ACHA_TORMA'
p27
sI27
S'3JAF:sp|O93430.1|GLRA1_DANRE'
p28
sI28
S'4BOT:sp|P02711.1|ACHA_TORMA'
p29
sI29
S'5CFB:sp|O75311.2|GLRA3_HUMAN'
p30
sI30
S'3JAD:sp|O93430.1|GLRA1_DANRE'
p31
sI31
S'4BOI:sp|P02711.1|ACHA_TORMA'
p32
sI32
S'4COF:sp|P28472.1|GBRB3_HUMAN'
p33
sI33
S'4BON:sp|P02711.1|ACHA_TORMA'
p34
sI34
S'3JAE:sp|O93430.1|GLRA1_DANRE'
p35
sI35
S'4X5T:sp|P23415.2|GLRA1_HUMAN'
p36
sI36
S'2LLY:sp|P43681.2|ACHA4_HUMAN'
p37
sI37
S''
s.